target datalayout = "e-m:e-p270:32:32-p271:32:32-p272:64:64-i64:64-i128:128-f80:128-n8:16:32:64-S128"
target triple = "x86_64-pc-linux-gnu"

%struct._zval_struct = type { %union._zend_value, %union.anon.3, %union.anon.6 }
%union._zend_value = type { i64 }
%union.anon.3 = type { i32 }
%union.anon.6 = type { i32 }
%struct._php_stream_wrapper = type { ptr, ptr, i32 }
%struct._php_stream_ops = type { ptr, ptr, ptr, ptr, ptr, ptr, ptr, ptr, ptr }
%struct._php_stream = type { ptr, ptr, %struct._php_stream_filter_chain, %struct._php_stream_filter_chain, ptr, ptr, %struct._zval_struct, i16, [16 x i8], i32, ptr, ptr, ptr, ptr, i64, ptr, i64, i64, i64, i64, ptr }
%struct._php_stream_filter_chain = type { ptr, ptr, ptr }

@php_plain_files_wrapper = external global %struct._php_stream_wrapper, align 8
@php_stream_memory_ops = external constant %struct._php_stream_ops, align 8
@php_stream_temp_ops = external constant %struct._php_stream_ops, align 8

; Function Attrs: nounwind uwtable
define i64 @_php_stream_read(ptr noundef %0, ptr noundef %1, i64 noundef %2) #0 {
  %4 = alloca i64, align 8
  %5 = alloca ptr, align 8
  %6 = alloca ptr, align 8
  %7 = alloca i64, align 8
  %8 = alloca i64, align 8
  %9 = alloca i64, align 8
  store ptr %0, ptr %5, align 8
  store ptr %1, ptr %6, align 8
  store i64 %2, ptr %7, align 8
  store i64 0, ptr %8, align 8
  store i64 0, ptr %9, align 8
  br label %10

10:                                               ; preds = %180, %3
  %11 = load i64, ptr %7, align 8
  %12 = icmp ugt i64 %11, 0
  br i1 %12, label %13, label %181

13:                                               ; preds = %10
  %14 = load ptr, ptr %5, align 8
  %15 = getelementptr inbounds %struct._php_stream, ptr %14, i32 0, i32 18
  %16 = load i64, ptr %15, align 8
  %17 = load ptr, ptr %5, align 8
  %18 = getelementptr inbounds %struct._php_stream, ptr %17, i32 0, i32 17
  %19 = load i64, ptr %18, align 8
  %20 = icmp sgt i64 %16, %19
  br i1 %20, label %21, label %63

21:                                               ; preds = %13
  %22 = load ptr, ptr %5, align 8
  %23 = getelementptr inbounds %struct._php_stream, ptr %22, i32 0, i32 18
  %24 = load i64, ptr %23, align 8
  %25 = load ptr, ptr %5, align 8
  %26 = getelementptr inbounds %struct._php_stream, ptr %25, i32 0, i32 17
  %27 = load i64, ptr %26, align 8
  %28 = sub nsw i64 %24, %27
  store i64 %28, ptr %8, align 8
  %29 = load i64, ptr %8, align 8
  %30 = load i64, ptr %7, align 8
  %31 = icmp ugt i64 %29, %30
  br i1 %31, label %32, label %34

32:                                               ; preds = %21
  %33 = load i64, ptr %7, align 8
  store i64 %33, ptr %8, align 8
  br label %34

34:                                               ; preds = %32, %21
  %35 = load ptr, ptr %6, align 8
  %36 = load ptr, ptr %5, align 8
  %37 = getelementptr inbounds %struct._php_stream, ptr %36, i32 0, i32 15
  %38 = load ptr, ptr %37, align 8
  %39 = load ptr, ptr %5, align 8
  %40 = getelementptr inbounds %struct._php_stream, ptr %39, i32 0, i32 17
  %41 = load i64, ptr %40, align 8
  %42 = getelementptr inbounds i8, ptr %38, i64 %41
  %43 = load i64, ptr %8, align 8
  call void @llvm.memcpy.p0.p0.i64(ptr align 1 %35, ptr align 1 %42, i64 %43, i1 false)
  %44 = load i64, ptr %8, align 8
  %45 = load ptr, ptr %5, align 8
  %46 = getelementptr inbounds %struct._php_stream, ptr %45, i32 0, i32 17
  %47 = load i64, ptr %46, align 8
  %48 = add nsw i64 %47, %44
  store i64 %48, ptr %46, align 8
  %49 = load i64, ptr %8, align 8
  %50 = load i64, ptr %7, align 8
  %51 = sub i64 %50, %49
  store i64 %51, ptr %7, align 8
  %52 = load i64, ptr %8, align 8
  %53 = load ptr, ptr %6, align 8
  %54 = getelementptr inbounds i8, ptr %53, i64 %52
  store ptr %54, ptr %6, align 8
  %55 = load i64, ptr %8, align 8
  %56 = load i64, ptr %9, align 8
  %57 = add nsw i64 %56, %55
  store i64 %57, ptr %9, align 8
  %58 = load ptr, ptr %5, align 8
  %59 = getelementptr inbounds %struct._php_stream, ptr %58, i32 0, i32 7
  %60 = load i16, ptr %59, align 8
  %61 = and i16 %60, -129
  %62 = or i16 %61, 128
  store i16 %62, ptr %59, align 8
  br label %63

63:                                               ; preds = %34, %13
  %64 = load i64, ptr %7, align 8
  %65 = icmp eq i64 %64, 0
  br i1 %65, label %66, label %67

66:                                               ; preds = %63
  br label %181

67:                                               ; preds = %63
  %68 = load ptr, ptr %5, align 8
  %69 = getelementptr inbounds %struct._php_stream, ptr %68, i32 0, i32 2
  %70 = getelementptr inbounds %struct._php_stream_filter_chain, ptr %69, i32 0, i32 0
  %71 = load ptr, ptr %70, align 8
  %72 = icmp ne ptr %71, null
  br i1 %72, label %103, label %73

73:                                               ; preds = %67
  %74 = load ptr, ptr %5, align 8
  %75 = getelementptr inbounds %struct._php_stream, ptr %74, i32 0, i32 9
  %76 = load i32, ptr %75, align 4
  %77 = and i32 %76, 2
  %78 = icmp ne i32 %77, 0
  br i1 %78, label %84, label %79

79:                                               ; preds = %73
  %80 = load ptr, ptr %5, align 8
  %81 = getelementptr inbounds %struct._php_stream, ptr %80, i32 0, i32 19
  %82 = load i64, ptr %81, align 8
  %83 = icmp eq i64 %82, 1
  br i1 %83, label %84, label %103

84:                                               ; preds = %79, %73
  %85 = load ptr, ptr %5, align 8
  %86 = getelementptr inbounds %struct._php_stream, ptr %85, i32 0, i32 0
  %87 = load ptr, ptr %86, align 8
  %88 = getelementptr inbounds %struct._php_stream_ops, ptr %87, i32 0, i32 1
  %89 = load ptr, ptr %88, align 8
  %90 = load ptr, ptr %5, align 8
  %91 = load ptr, ptr %6, align 8
  %92 = load i64, ptr %7, align 8
  %93 = call i64 %89(ptr noundef %90, ptr noundef %91, i64 noundef %92)
  store i64 %93, ptr %8, align 8
  %94 = load i64, ptr %8, align 8
  %95 = icmp slt i64 %94, 0
  br i1 %95, label %96, label %102

96:                                               ; preds = %84
  %97 = load i64, ptr %9, align 8
  %98 = icmp eq i64 %97, 0
  br i1 %98, label %99, label %101

99:                                               ; preds = %96
  %100 = load i64, ptr %8, align 8
  store i64 %100, ptr %4, align 8
  br label %197

101:                                              ; preds = %96
  br label %181

102:                                              ; preds = %84
  br label %145

103:                                              ; preds = %79, %67
  %104 = load ptr, ptr %5, align 8
  %105 = load i64, ptr %7, align 8
  %106 = call i32 @_php_stream_fill_read_buffer(ptr noundef %104, i64 noundef %105)
  %107 = icmp ne i32 %106, 0
  br i1 %107, label %108, label %113

108:                                              ; preds = %103
  %109 = load i64, ptr %9, align 8
  %110 = icmp eq i64 %109, 0
  br i1 %110, label %111, label %112

111:                                              ; preds = %108
  store i64 -1, ptr %4, align 8
  br label %197

112:                                              ; preds = %108
  br label %181

113:                                              ; preds = %103
  %114 = load ptr, ptr %5, align 8
  %115 = getelementptr inbounds %struct._php_stream, ptr %114, i32 0, i32 18
  %116 = load i64, ptr %115, align 8
  %117 = load ptr, ptr %5, align 8
  %118 = getelementptr inbounds %struct._php_stream, ptr %117, i32 0, i32 17
  %119 = load i64, ptr %118, align 8
  %120 = sub nsw i64 %116, %119
  store i64 %120, ptr %8, align 8
  %121 = load i64, ptr %8, align 8
  %122 = load i64, ptr %7, align 8
  %123 = icmp ugt i64 %121, %122
  br i1 %123, label %124, label %126

124:                                              ; preds = %113
  %125 = load i64, ptr %7, align 8
  store i64 %125, ptr %8, align 8
  br label %126

126:                                              ; preds = %124, %113
  %127 = load i64, ptr %8, align 8
  %128 = icmp sgt i64 %127, 0
  br i1 %128, label %129, label %144

129:                                              ; preds = %126
  %130 = load ptr, ptr %6, align 8
  %131 = load ptr, ptr %5, align 8
  %132 = getelementptr inbounds %struct._php_stream, ptr %131, i32 0, i32 15
  %133 = load ptr, ptr %132, align 8
  %134 = load ptr, ptr %5, align 8
  %135 = getelementptr inbounds %struct._php_stream, ptr %134, i32 0, i32 17
  %136 = load i64, ptr %135, align 8
  %137 = getelementptr inbounds i8, ptr %133, i64 %136
  %138 = load i64, ptr %8, align 8
  call void @llvm.memcpy.p0.p0.i64(ptr align 1 %130, ptr align 1 %137, i64 %138, i1 false)
  %139 = load i64, ptr %8, align 8
  %140 = load ptr, ptr %5, align 8
  %141 = getelementptr inbounds %struct._php_stream, ptr %140, i32 0, i32 17
  %142 = load i64, ptr %141, align 8
  %143 = add nsw i64 %142, %139
  store i64 %143, ptr %141, align 8
  br label %144

144:                                              ; preds = %129, %126
  br label %145

145:                                              ; preds = %144, %102
  %146 = load i64, ptr %8, align 8
  %147 = icmp sgt i64 %146, 0
  br i1 %147, label %148, label %163

148:                                              ; preds = %145
  %149 = load i64, ptr %8, align 8
  %150 = load i64, ptr %9, align 8
  %151 = add nsw i64 %150, %149
  store i64 %151, ptr %9, align 8
  %152 = load i64, ptr %8, align 8
  %153 = load ptr, ptr %6, align 8
  %154 = getelementptr inbounds i8, ptr %153, i64 %152
  store ptr %154, ptr %6, align 8
  %155 = load i64, ptr %8, align 8
  %156 = load i64, ptr %7, align 8
  %157 = sub i64 %156, %155
  store i64 %157, ptr %7, align 8
  %158 = load ptr, ptr %5, align 8
  %159 = getelementptr inbounds %struct._php_stream, ptr %158, i32 0, i32 7
  %160 = load i16, ptr %159, align 8
  %161 = and i16 %160, -129
  %162 = or i16 %161, 128
  store i16 %162, ptr %159, align 8
  br label %164

163:                                              ; preds = %145
  br label %181

164:                                              ; preds = %148
  %165 = load ptr, ptr %5, align 8
  %166 = getelementptr inbounds %struct._php_stream, ptr %165, i32 0, i32 4
  %167 = load ptr, ptr %166, align 8
  %168 = icmp ne ptr %167, @php_plain_files_wrapper
  br i1 %168, label %169, label %180

169:                                              ; preds = %164
  %170 = load ptr, ptr %5, align 8
  %171 = getelementptr inbounds %struct._php_stream, ptr %170, i32 0, i32 0
  %172 = load ptr, ptr %171, align 8
  %173 = icmp ne ptr %172, @php_stream_memory_ops
  br i1 %173, label %174, label %180

174:                                              ; preds = %169
  %175 = load ptr, ptr %5, align 8
  %176 = getelementptr inbounds %struct._php_stream, ptr %175, i32 0, i32 0
  %177 = load ptr, ptr %176, align 8
  %178 = icmp ne ptr %177, @php_stream_temp_ops
  br i1 %178, label %179, label %180

179:                                              ; preds = %174
  br label %181

180:                                              ; preds = %174, %169, %164
  br label %10

181:                                              ; preds = %179, %163, %112, %101, %66, %10
  %182 = load i64, ptr %9, align 8
  %183 = icmp sgt i64 %182, 0
  br i1 %183, label %184, label %195

184:                                              ; preds = %181
  %185 = load i64, ptr %9, align 8
  %186 = load ptr, ptr %5, align 8
  %187 = getelementptr inbounds %struct._php_stream, ptr %186, i32 0, i32 14
  %188 = load i64, ptr %187, align 8
  %189 = add nsw i64 %188, %185
  store i64 %189, ptr %187, align 8
  %190 = load ptr, ptr %5, align 8
  %191 = getelementptr inbounds %struct._php_stream, ptr %190, i32 0, i32 7
  %192 = load i16, ptr %191, align 8
  %193 = and i16 %192, -129
  %194 = or i16 %193, 0
  store i16 %194, ptr %191, align 8
  br label %195

195:                                              ; preds = %184, %181
  %196 = load i64, ptr %9, align 8
  store i64 %196, ptr %4, align 8
  br label %197

197:                                              ; preds = %195, %111, %99
  %198 = load i64, ptr %4, align 8
  ret i64 %198
}