; Function Attrs: nounwind uwtable
define i64 @_php_stream_read(ptr noundef %0, ptr noundef %1, i64 noundef %2) local_unnamed_addr #2 {
  %.not110 = icmp eq i64 %2, 0
  br i1 %.not110, label %.thread103.thread, label %.lr.ph

.lr.ph:                                           ; preds = %3
  %4 = getelementptr inbounds i8, ptr %0, i64 184
  %5 = getelementptr inbounds i8, ptr %0, i64 176
  %6 = getelementptr inbounds i8, ptr %0, i64 160
  %7 = getelementptr inbounds i8, ptr %0, i64 96
  %8 = getelementptr inbounds i8, ptr %0, i64 16
  %9 = getelementptr inbounds i8, ptr %0, i64 116
  %10 = getelementptr inbounds i8, ptr %0, i64 192
  %11 = getelementptr inbounds i8, ptr %0, i64 64
  br label %.backedge

.backedge:                                        ; preds = %.backedge.backedge, %.lr.ph
  %.0113 = phi i64 [ 0, %.lr.ph ], [ %57, %.backedge.backedge ]
  %.066112 = phi i64 [ %2, %.lr.ph ], [ %59, %.backedge.backedge ]
  %.068111 = phi ptr [ %1, %.lr.ph ], [ %58, %.backedge.backedge ]
  %12 = load i64, ptr %4, align 8
  %13 = load i64, ptr %5, align 8
  %14 = icmp sgt i64 %12, %13
  br i1 %14, label %15, label %.thread

15:                                               ; preds = %.backedge
  %16 = sub nsw i64 %12, %13
  %spec.select = tail call i64 @llvm.umin.i64(i64 %16, i64 %.066112)
  %17 = load ptr, ptr %6, align 8
  %18 = getelementptr inbounds i8, ptr %17, i64 %13
  tail call void @llvm.memcpy.p0.p0.i64(ptr align 1 %.068111, ptr align 1 %18, i64 %spec.select, i1 false)
  %19 = load i64, ptr %5, align 8
  %20 = add nsw i64 %19, %spec.select
  store i64 %20, ptr %5, align 8
  %21 = sub i64 %.066112, %spec.select
  %22 = getelementptr inbounds i8, ptr %.068111, i64 %spec.select
  %23 = add nsw i64 %spec.select, %.0113
  %24 = load i16, ptr %7, align 8
  %25 = or i16 %24, 128
  store i16 %25, ptr %7, align 8
  %26 = icmp eq i64 %21, 0
  br i1 %26, label %.thread103, label %.thread

.thread:                                          ; preds = %.backedge, %15
  %.192 = phi i64 [ %23, %15 ], [ %.0113, %.backedge ]
  %.16790 = phi i64 [ %21, %15 ], [ %.066112, %.backedge ]
  %.16988 = phi ptr [ %22, %15 ], [ %.068111, %.backedge ]
  %27 = load ptr, ptr %8, align 8
  %.not78 = icmp eq ptr %27, null
  br i1 %.not78, label %28, label %42

28:                                               ; preds = %.thread
  %29 = load i32, ptr %9, align 4
  %30 = and i32 %29, 2
  %.not79 = icmp eq i32 %30, 0
  br i1 %.not79, label %31, label %34

31:                                               ; preds = %28
  %32 = load i64, ptr %10, align 8
  %33 = icmp eq i64 %32, 1
  br i1 %33, label %34, label %42

34:                                               ; preds = %31, %28
  %35 = load ptr, ptr %0, align 8
  %36 = getelementptr inbounds i8, ptr %35, i64 8
  %37 = load ptr, ptr %36, align 8
  %38 = tail call i64 %37(ptr noundef nonnull %0, ptr noundef %.16988, i64 noundef %.16790) #27
  %39 = icmp slt i64 %38, 0
  br i1 %39, label %40, label %55

40:                                               ; preds = %34
  %41 = icmp eq i64 %.192, 0
  br i1 %41, label %.thread103.thread, label %.thread103

42:                                               ; preds = %31, %.thread
  %43 = tail call i32 @_php_stream_fill_read_buffer(ptr noundef nonnull %0, i64 noundef %.16790), !range !5
  %.not80 = icmp eq i32 %43, 0
  br i1 %.not80, label %46, label %44

44:                                               ; preds = %42
  %45 = icmp eq i64 %.192, 0
  br i1 %45, label %.thread103.thread, label %.thread103

46:                                               ; preds = %42
  %47 = load i64, ptr %4, align 8
  %48 = load i64, ptr %5, align 8
  %49 = sub nsw i64 %47, %48
  %spec.select84 = tail call i64 @llvm.umin.i64(i64 %49, i64 %.16790)
  %50 = icmp sgt i64 %spec.select84, 0
  br i1 %50, label %.thread94, label %.thread103

.thread94:                                        ; preds = %46
  %51 = load ptr, ptr %6, align 8
  %52 = getelementptr inbounds i8, ptr %51, i64 %48
  tail call void @llvm.memcpy.p0.p0.i64(ptr align 1 %.16988, ptr align 1 %52, i64 %spec.select84, i1 false)
  %53 = load i64, ptr %5, align 8
  %54 = add nsw i64 %53, %spec.select84
  store i64 %54, ptr %5, align 8
  br label %56

55:                                               ; preds = %34
  %.not108 = icmp eq i64 %38, 0
  br i1 %.not108, label %.thread103, label %56

56:                                               ; preds = %.thread94, %55
  %.265102 = phi i64 [ %spec.select84, %.thread94 ], [ %38, %55 ]
  %57 = add nsw i64 %.265102, %.192
  %58 = getelementptr inbounds i8, ptr %.16988, i64 %.265102
  %59 = sub i64 %.16790, %.265102
  %60 = load i16, ptr %7, align 8
  %61 = or i16 %60, 128
  store i16 %61, ptr %7, align 8
  %62 = load ptr, ptr %11, align 8
  %.not81 = icmp eq ptr %62, @php_plain_files_wrapper
  br i1 %.not81, label %65, label %63

63:                                               ; preds = %56
  %64 = load ptr, ptr %0, align 8
  %.not82 = icmp ne ptr %64, @php_stream_memory_ops
  %.not83 = icmp ne ptr %64, @php_stream_temp_ops
  %or.cond.not123 = and i1 %.not82, %.not83
  %.not = icmp eq i64 %59, 0
  %or.cond122 = select i1 %or.cond.not123, i1 true, i1 %.not
  br i1 %or.cond122, label %.thread103, label %.backedge.backedge

65:                                               ; preds = %56
  %.not.old = icmp eq i64 %59, 0
  br i1 %.not.old, label %.thread103, label %.backedge.backedge

.backedge.backedge:                               ; preds = %65, %63
  br label %.backedge

.thread103:                                       ; preds = %65, %15, %55, %63, %46, %44, %40
  %.2 = phi i64 [ %.192, %44 ], [ %.192, %40 ], [ %57, %65 ], [ %23, %15 ], [ %.192, %55 ], [ %57, %63 ], [ %.192, %46 ]
  %66 = icmp sgt i64 %.2, 0
  br i1 %66, label %67, label %.thread103.thread

67:                                               ; preds = %.thread103
  %68 = getelementptr inbounds i8, ptr %0, i64 152
  %69 = load i64, ptr %68, align 8
  %70 = add nsw i64 %69, %.2
  store i64 %70, ptr %68, align 8
  %71 = getelementptr inbounds i8, ptr %0, i64 96
  %72 = load i16, ptr %71, align 8
  %73 = and i16 %72, -129
  store i16 %73, ptr %71, align 8
  br label %.thread103.thread

.thread103.thread:                                ; preds = %3, %.thread103, %67, %44, %40
  %.070 = phi i64 [ %38, %40 ], [ -1, %44 ], [ %.2, %67 ], [ %.2, %.thread103 ], [ 0, %3 ]
  ret i64 %.070
}